target datalayout = "e-m:e-p270:32:32-p271:32:32-p272:64:64-i64:64-i128:128-f80:128-n8:16:32:64-S128"
target triple = "x86_64-pc-linux-gnu"

%struct.IDAMemRec = type { double, ptr, ptr, i32, double, double, ptr, i32, ptr, ptr, i32, ptr, ptr, i32, i32, double, double, ptr, i32, i32, i32, ptr, ptr, i32, ptr, ptr, ptr, i32, double, i32, i32, double, ptr, ptr, i32, ptr, ptr, i32, i32, i32, double, ptr, ptr, [6 x ptr], [6 x double], [6 x double], [6 x double], [6 x double], [6 x double], ptr, ptr, ptr, ptr, ptr, ptr, ptr, ptr, ptr, ptr, ptr, ptr, ptr, ptr, ptr, [6 x ptr], ptr, ptr, ptr, ptr, [6 x ptr], ptr, ptr, ptr, ptr, ptr, ptr, ptr, ptr, ptr, ptr, ptr, ptr, ptr, ptr, [6 x ptr], ptr, ptr, ptr, ptr, ptr, double, ptr, ptr, i32, i32, i32, i32, i32, i32, i32, double, double, double, i32, double, i32, i32, i32, i32, double, double, double, double, double, double, double, double, double, double, double, double, double, double, i32, i32, i32, i32, i32, i64, double, i32, i64, i64, i64, i64, i64, i64, i64, i64, i64, i64, i64, i64, i64, i64, i64, i64, i64, i64, i64, i64, i64, i64, i64, i64, ptr, ptr, ptr, i32, i32, i32, i32, i32, i32, i32, i32, i32, i32, i32, i32, i32, ptr, ptr, ptr, ptr, ptr, ptr, i32, i32, i32, i32, i32, i32, double, double, double, ptr, i32, ptr, ptr, double, double, double, ptr, ptr, ptr, double, double, i32, i32, i64, ptr, i32, i32, ptr, i32 }
%struct.IDASpilsMemRec = type { i32, i32, double, i32, i32, double, double, double, i64, i64, i64, i64, i64, i64, i64, i64, i64, i64, i64, i64, ptr, ptr, ptr, ptr, ptr, ptr, ptr, i64, ptr, ptr, ptr, ptr, i32, ptr, ptr }

; Function Attrs: nounwind uwtable
define i32 @IDASpilsDQJtimes(double noundef %0, ptr noundef %1, ptr noundef %2, ptr noundef %3, ptr noundef %4, ptr noundef %5, double noundef %6, ptr noundef %7, ptr noundef %8, ptr noundef %9) #0 {
  %11 = alloca i32, align 4
  %12 = alloca double, align 8
  %13 = alloca ptr, align 8
  %14 = alloca ptr, align 8
  %15 = alloca ptr, align 8
  %16 = alloca ptr, align 8
  %17 = alloca ptr, align 8
  %18 = alloca double, align 8
  %19 = alloca ptr, align 8
  %20 = alloca ptr, align 8
  %21 = alloca ptr, align 8
  %22 = alloca ptr, align 8
  %23 = alloca ptr, align 8
  %24 = alloca ptr, align 8
  %25 = alloca ptr, align 8
  %26 = alloca double, align 8
  %27 = alloca double, align 8
  %28 = alloca i32, align 4
  %29 = alloca i32, align 4
  %30 = alloca i32, align 4
  store double %0, ptr %12, align 8, !tbaa !28
  store ptr %1, ptr %13, align 8, !tbaa !49
  store ptr %2, ptr %14, align 8, !tbaa !49
  store ptr %3, ptr %15, align 8, !tbaa !49
  store ptr %4, ptr %16, align 8, !tbaa !49
  store ptr %5, ptr %17, align 8, !tbaa !49
  store double %6, ptr %18, align 8, !tbaa !28
  store ptr %7, ptr %19, align 8, !tbaa !3
  store ptr %8, ptr %20, align 8, !tbaa !49
  store ptr %9, ptr %21, align 8, !tbaa !49
  call void @llvm.lifetime.start.p0(i64 8, ptr %22) #5
  call void @llvm.lifetime.start.p0(i64 8, ptr %23) #5
  call void @llvm.lifetime.start.p0(i64 8, ptr %24) #5
  call void @llvm.lifetime.start.p0(i64 8, ptr %25) #5
  call void @llvm.lifetime.start.p0(i64 8, ptr %26) #5
  store double 0.000000e+00, ptr %26, align 8, !tbaa !28
  call void @llvm.lifetime.start.p0(i64 8, ptr %27) #5
  call void @llvm.lifetime.start.p0(i64 4, ptr %28) #5
  call void @llvm.lifetime.start.p0(i64 4, ptr %29) #5
  %31 = load ptr, ptr %19, align 8, !tbaa !3
  store ptr %31, ptr %22, align 8, !tbaa !9
  %32 = load ptr, ptr %22, align 8, !tbaa !9
  %33 = getelementptr inbounds nuw %struct.IDAMemRec, ptr %32, i32 0, i32 176
  %34 = load ptr, ptr %33, align 8, !tbaa !11
  store ptr %34, ptr %23, align 8, !tbaa !21
  %35 = load ptr, ptr %23, align 8, !tbaa !21
  %36 = getelementptr inbounds nuw %struct.IDASpilsMemRec, ptr %35, i32 0, i32 0
  %37 = load i32, ptr %36, align 8, !tbaa !23
  switch i32 %37, label %66 [
    i32 1, label %38
    i32 2, label %46
    i32 3, label %56
  ]

38:                                               ; preds = %10
  %39 = load ptr, ptr %23, align 8, !tbaa !21
  %40 = getelementptr inbounds nuw %struct.IDASpilsMemRec, ptr %39, i32 0, i32 2
  %41 = load double, ptr %40, align 8, !tbaa !60
  %42 = load ptr, ptr %23, align 8, !tbaa !21
  %43 = getelementptr inbounds nuw %struct.IDASpilsMemRec, ptr %42, i32 0, i32 6
  %44 = load double, ptr %43, align 8, !tbaa !30
  %45 = fmul double %41, %44
  store double %45, ptr %26, align 8, !tbaa !28
  br label %66

46:                                               ; preds = %10
  %47 = load ptr, ptr %23, align 8, !tbaa !21
  %48 = getelementptr inbounds nuw %struct.IDASpilsMemRec, ptr %47, i32 0, i32 6
  %49 = load double, ptr %48, align 8, !tbaa !30
  %50 = load ptr, ptr %16, align 8, !tbaa !49
  %51 = load ptr, ptr %22, align 8, !tbaa !9
  %52 = getelementptr inbounds nuw %struct.IDAMemRec, ptr %51, i32 0, i32 49
  %53 = load ptr, ptr %52, align 8, !tbaa !61
  %54 = call double @N_VWrmsNorm(ptr noundef %50, ptr noundef %53)
  %55 = fdiv double %49, %54
  store double %55, ptr %26, align 8, !tbaa !28
  br label %66

56:                                               ; preds = %10
  %57 = load ptr, ptr %23, align 8, !tbaa !21
  %58 = getelementptr inbounds nuw %struct.IDASpilsMemRec, ptr %57, i32 0, i32 6
  %59 = load double, ptr %58, align 8, !tbaa !30
  %60 = load ptr, ptr %16, align 8, !tbaa !49
  %61 = load ptr, ptr %22, align 8, !tbaa !9
  %62 = getelementptr inbounds nuw %struct.IDAMemRec, ptr %61, i32 0, i32 49
  %63 = load ptr, ptr %62, align 8, !tbaa !61
  %64 = call double @N_VWrmsNorm(ptr noundef %60, ptr noundef %63)
  %65 = fdiv double %59, %64
  store double %65, ptr %26, align 8, !tbaa !28
  br label %66

66:                                               ; preds = %10, %56, %46, %38
  %67 = load ptr, ptr %20, align 8, !tbaa !49
  store ptr %67, ptr %24, align 8, !tbaa !49
  %68 = load ptr, ptr %21, align 8, !tbaa !49
  store ptr %68, ptr %25, align 8, !tbaa !49
  store i32 0, ptr %28, align 4, !tbaa !7
  br label %69

69:                                               ; preds = %108, %66
  %70 = load i32, ptr %28, align 4, !tbaa !7
  %71 = icmp slt i32 %70, 3
  br i1 %71, label %72, label %111

72:                                               ; preds = %69
  %73 = load double, ptr %26, align 8, !tbaa !28
  %74 = load ptr, ptr %16, align 8, !tbaa !49
  %75 = load ptr, ptr %13, align 8, !tbaa !49
  %76 = load ptr, ptr %24, align 8, !tbaa !49
  call void @N_VLinearSum(double noundef %73, ptr noundef %74, double noundef 1.000000e+00, ptr noundef %75, ptr noundef %76)
  %77 = load double, ptr %18, align 8, !tbaa !28
  %78 = load double, ptr %26, align 8, !tbaa !28
  %79 = fmul double %77, %78
  %80 = load ptr, ptr %16, align 8, !tbaa !49
  %81 = load ptr, ptr %14, align 8, !tbaa !49
  %82 = load ptr, ptr %25, align 8, !tbaa !49
  call void @N_VLinearSum(double noundef %79, ptr noundef %80, double noundef 1.000000e+00, ptr noundef %81, ptr noundef %82)
  %83 = load ptr, ptr %22, align 8, !tbaa !9
  %84 = getelementptr inbounds nuw %struct.IDAMemRec, ptr %83, i32 0, i32 1
  %85 = load ptr, ptr %84, align 8, !tbaa !62
  %86 = load double, ptr %12, align 8, !tbaa !28
  %87 = load ptr, ptr %24, align 8, !tbaa !49
  %88 = load ptr, ptr %25, align 8, !tbaa !49
  %89 = load ptr, ptr %17, align 8, !tbaa !49
  %90 = load ptr, ptr %22, align 8, !tbaa !9
  %91 = getelementptr inbounds nuw %struct.IDAMemRec, ptr %90, i32 0, i32 2
  %92 = load ptr, ptr %91, align 8, !tbaa !63
  %93 = call i32 %85(double noundef %86, ptr noundef %87, ptr noundef %88, ptr noundef %89, ptr noundef %92)
  store i32 %93, ptr %29, align 4, !tbaa !7
  %94 = load ptr, ptr %23, align 8, !tbaa !21
  %95 = getelementptr inbounds nuw %struct.IDASpilsMemRec, ptr %94, i32 0, i32 12
  %96 = load i64, ptr %95, align 8, !tbaa !45
  %97 = add nsw i64 %96, 1
  store i64 %97, ptr %95, align 8, !tbaa !45
  %98 = load i32, ptr %29, align 4, !tbaa !7
  %99 = icmp eq i32 %98, 0
  br i1 %99, label %100, label %101

100:                                              ; preds = %72
  br label %111

101:                                              ; preds = %72
  %102 = load i32, ptr %29, align 4, !tbaa !7
  %103 = icmp slt i32 %102, 0
  br i1 %103, label %104, label %105

104:                                              ; preds = %101
  store i32 -1, ptr %11, align 4
  store i32 1, ptr %30, align 4
  br label %124

105:                                              ; preds = %101
  %106 = load double, ptr %26, align 8, !tbaa !28
  %107 = fmul double %106, 2.500000e-01
  store double %107, ptr %26, align 8, !tbaa !28
  br label %108

108:                                              ; preds = %105
  %109 = load i32, ptr %28, align 4, !tbaa !7
  %110 = add nsw i32 %109, 1
  store i32 %110, ptr %28, align 4, !tbaa !7
  br label %69, !llvm.loop !64

111:                                              ; preds = %100, %69
  %112 = load i32, ptr %29, align 4, !tbaa !7
  %113 = icmp sgt i32 %112, 0
  br i1 %113, label %114, label %115

114:                                              ; preds = %111
  store i32 1, ptr %11, align 4
  store i32 1, ptr %30, align 4
  br label %124

115:                                              ; preds = %111
  %116 = load double, ptr %26, align 8, !tbaa !28
  %117 = fdiv double 1.000000e+00, %116
  store double %117, ptr %27, align 8, !tbaa !28
  %118 = load double, ptr %27, align 8, !tbaa !28
  %119 = load ptr, ptr %17, align 8, !tbaa !49
  %120 = load double, ptr %27, align 8, !tbaa !28
  %121 = fneg double %120
  %122 = load ptr, ptr %15, align 8, !tbaa !49
  %123 = load ptr, ptr %17, align 8, !tbaa !49
  call void @N_VLinearSum(double noundef %118, ptr noundef %119, double noundef %121, ptr noundef %122, ptr noundef %123)
  store i32 0, ptr %11, align 4
  store i32 1, ptr %30, align 4
  br label %124

124:                                              ; preds = %115, %114, %104
  call void @llvm.lifetime.end.p0(i64 4, ptr %29) #5
  call void @llvm.lifetime.end.p0(i64 4, ptr %28) #5
  call void @llvm.lifetime.end.p0(i64 8, ptr %27) #5
  call void @llvm.lifetime.end.p0(i64 8, ptr %26) #5
  call void @llvm.lifetime.end.p0(i64 8, ptr %25) #5
  call void @llvm.lifetime.end.p0(i64 8, ptr %24) #5
  call void @llvm.lifetime.end.p0(i64 8, ptr %23) #5
  call void @llvm.lifetime.end.p0(i64 8, ptr %22) #5
  %125 = load i32, ptr %11, align 4
  ret i32 %125
}