; Function Attrs: nounwind uwtable
define range(i32 -1, 2) i32 @IDASpilsDQJtimes(double noundef %0, ptr noundef %1, ptr noundef %2, ptr noundef %3, ptr noundef %4, ptr noundef %5, double noundef %6, ptr noundef readonly captures(none) %7, ptr noundef %8, ptr noundef %9) local_unnamed_addr #0 {
  %11 = getelementptr inbounds nuw i8, ptr %7, i64 1632
  %12 = load ptr, ptr %11, align 8, !tbaa !3
  %13 = load i32, ptr %12, align 8, !tbaa !17
  switch i32 %13, label %34 [
    i32 1, label %14
    i32 2, label %20
    i32 3, label %27
  ]

14:                                               ; preds = %10
  %15 = getelementptr inbounds nuw i8, ptr %12, i64 8
  %16 = load double, ptr %15, align 8, !tbaa !48
  %17 = getelementptr inbounds nuw i8, ptr %12, i64 32
  %18 = load double, ptr %17, align 8, !tbaa !23
  %19 = fmul double %16, %18
  br label %34

20:                                               ; preds = %10
  %21 = getelementptr inbounds nuw i8, ptr %12, i64 32
  %22 = load double, ptr %21, align 8, !tbaa !23
  %23 = getelementptr inbounds nuw i8, ptr %7, i64 600
  %24 = load ptr, ptr %23, align 8, !tbaa !49
  %25 = tail call double @N_VWrmsNorm(ptr noundef %4, ptr noundef %24) #5
  %26 = fdiv double %22, %25
  br label %34

27:                                               ; preds = %10
  %28 = getelementptr inbounds nuw i8, ptr %12, i64 32
  %29 = load double, ptr %28, align 8, !tbaa !23
  %30 = getelementptr inbounds nuw i8, ptr %7, i64 600
  %31 = load ptr, ptr %30, align 8, !tbaa !49
  %32 = tail call double @N_VWrmsNorm(ptr noundef %4, ptr noundef %31) #5
  %33 = fdiv double %29, %32
  br label %34

34:                                               ; preds = %27, %20, %14, %10
  %.043 = phi double [ 0.000000e+00, %10 ], [ %33, %27 ], [ %26, %20 ], [ %19, %14 ]
  %35 = getelementptr inbounds nuw i8, ptr %7, i64 8
  %36 = getelementptr inbounds nuw i8, ptr %7, i64 16
  %37 = getelementptr inbounds nuw i8, ptr %12, i64 80
  br label %38

38:                                               ; preds = %34, %48
  %.04150 = phi i32 [ 0, %34 ], [ %50, %48 ]
  %.14449 = phi double [ %.043, %34 ], [ %49, %48 ]
  tail call void @N_VLinearSum(double noundef %.14449, ptr noundef %4, double noundef 1.000000e+00, ptr noundef %1, ptr noundef %8) #5
  %39 = fmul double %6, %.14449
  tail call void @N_VLinearSum(double noundef %39, ptr noundef %4, double noundef 1.000000e+00, ptr noundef %2, ptr noundef %9) #5
  %40 = load ptr, ptr %35, align 8, !tbaa !50
  %41 = load ptr, ptr %36, align 8, !tbaa !51
  %42 = tail call i32 %40(double noundef %0, ptr noundef %8, ptr noundef %9, ptr noundef %5, ptr noundef %41) #5
  %43 = load i64, ptr %37, align 8, !tbaa !36
  %44 = add nsw i64 %43, 1
  store i64 %44, ptr %37, align 8, !tbaa !36
  %45 = icmp eq i32 %42, 0
  br i1 %45, label %51, label %46

46:                                               ; preds = %38
  %47 = icmp slt i32 %42, 0
  br i1 %47, label %.thread, label %48

48:                                               ; preds = %46
  %49 = fmul double %.14449, 2.500000e-01
  %50 = add nuw nsw i32 %.04150, 1
  %exitcond.not = icmp eq i32 %50, 3
  br i1 %exitcond.not, label %.thread, label %38, !llvm.loop !52

51:                                               ; preds = %38
  %52 = fdiv double 1.000000e+00, %.14449
  %53 = fneg double %52
  tail call void @N_VLinearSum(double noundef %52, ptr noundef %5, double noundef %53, ptr noundef %3, ptr noundef %5) #5
  br label %.thread

.thread:                                          ; preds = %48, %46, %51
  %.042 = phi i32 [ 0, %51 ], [ 1, %48 ], [ -1, %46 ]
  ret i32 %.042
}